; Function Attrs: mustprogress uwtable
define void @_ZN6duckdb17ArrayColumnWriter5WriteERNS_17ColumnWriterStateERNS_6VectorEm(ptr noundef nonnull align 8 dereferenceable(80) %0, ptr noundef nonnull align 8 dereferenceable(112) %1, ptr noundef nonnull align 8 dereferenceable(104) %2, i64 noundef %3) unnamed_addr #0 align 2 {
  %5 = getelementptr inbounds nuw i8, ptr %2, i64 8
  %6 = tail call noundef i64 @_ZN6duckdb9ArrayType7GetSizeERKNS_11LogicalTypeE(ptr noundef nonnull align 8 dereferenceable(24) %5)
  %7 = tail call noundef nonnull align 8 dereferenceable(104) ptr @_ZN6duckdb11ArrayVector8GetEntryERNS_6VectorE(ptr noundef nonnull align 8 dereferenceable(104) %2)
  %8 = getelementptr inbounds nuw i8, ptr %0, i64 72
  %9 = tail call noundef ptr @_ZNK6duckdb10unique_ptrINS_12ColumnWriterESt14default_deleteIS1_ELb1EEptEv(ptr noundef nonnull align 8 dereferenceable(8) %8)
  %10 = getelementptr inbounds nuw i8, ptr %1, i64 128
  %11 = tail call noundef nonnull align 8 dereferenceable(112) ptr @_ZNK6duckdb10unique_ptrINS_17ColumnWriterStateESt14default_deleteIS1_ELb1EEdeEv(ptr noundef nonnull align 8 dereferenceable(8) %10)
  %12 = mul i64 %6, %3
  %13 = load ptr, ptr %9, align 8, !tbaa !3
  %14 = getelementptr inbounds nuw i8, ptr %13, i64 64
  %15 = load ptr, ptr %14, align 8
  tail call void %15(ptr noundef nonnull align 8 dereferenceable(65) %9, ptr noundef nonnull align 8 dereferenceable(112) %11, ptr noundef nonnull align 8 dereferenceable(104) %7, i64 noundef %12)
  ret void
}